; Function Attrs: alwaysinline norecurse nounwind ssp uwtable
define internal void @_ZN6open3d4core6kernel18CPUReductionEngine26LaunchReductionParallelDimItPFtttEEEvRKNS0_7IndexerET0_.omp_outlined(ptr noalias noundef readonly captures(none) %0, ptr noalias readnone captures(none) %1, ptr noundef nonnull readonly align 8 captures(none) dereferenceable(8) %2, ptr noundef nonnull readonly align 8 captures(none) dereferenceable(8) %3, ptr noundef nonnull readonly align 8 captures(none) dereferenceable(842) %4, ptr noundef nonnull readonly align 8 captures(none) dereferenceable(8) %5) #26 personality ptr @__gxx_personality_v0 {
  %7 = alloca i64, align 8
  %8 = alloca i64, align 8
  %9 = alloca i64, align 8
  %10 = alloca i32, align 4
  %11 = alloca %"class.open3d::core::Indexer", align 8
  %12 = load ptr, ptr %2, align 8, !tbaa !168
  %13 = load i64, ptr %3, align 8, !tbaa !62
  %14 = getelementptr inbounds i64, ptr %12, i64 %13
  %15 = load i64, ptr %14, align 8, !tbaa !62
  %16 = icmp sgt i64 %15, 0
  br i1 %16, label %17, label %29

17:                                               ; preds = %6
  %18 = add nsw i64 %15, -1
  call void @llvm.lifetime.start.p0(i64 8, ptr nonnull %7) #27
  store i64 0, ptr %7, align 8, !tbaa !62
  call void @llvm.lifetime.start.p0(i64 8, ptr nonnull %8) #27
  store i64 %18, ptr %8, align 8, !tbaa !62
  call void @llvm.lifetime.start.p0(i64 8, ptr nonnull %9) #27
  store i64 1, ptr %9, align 8, !tbaa !62
  call void @llvm.lifetime.start.p0(i64 4, ptr nonnull %10) #27
  store i32 0, ptr %10, align 4, !tbaa !48
  %19 = load i32, ptr %0, align 4, !tbaa !48
  call void @__kmpc_for_static_init_8(ptr nonnull @1, i32 %19, i32 34, ptr nonnull %10, ptr nonnull %7, ptr nonnull %8, ptr nonnull %9, i64 1, i64 1)
  %20 = load i64, ptr %8, align 8, !tbaa !62
  %21 = call i64 @llvm.smin.i64(i64 %20, i64 %18)
  store i64 %21, ptr %8, align 8, !tbaa !62
  %22 = load i64, ptr %7, align 8, !tbaa !62
  %.not15 = icmp sgt i64 %22, %21
  br i1 %.not15, label %._crit_edge, label %.lr.ph

.lr.ph:                                           ; preds = %17, %26
  %.016 = phi i64 [ %27, %26 ], [ %22, %17 ]
  call void @llvm.lifetime.start.p0(i64 848, ptr nonnull %11) #27
  call void @llvm.memcpy.p0.p0.i64(ptr noundef nonnull align 8 dereferenceable(848) %11, ptr noundef nonnull align 8 dereferenceable(848) %4, i64 848, i1 false), !tbaa.struct !61
  %23 = load i64, ptr %3, align 8, !tbaa !62
  invoke void @_ZN6open3d4core7Indexer9ShrinkDimElll(ptr noundef nonnull align 8 dereferenceable(842) %11, i64 noundef %23, i64 noundef %.016, i64 noundef 1)
          to label %24 unwind label %30

24:                                               ; preds = %.lr.ph
  %25 = load ptr, ptr %5, align 8, !tbaa !66
  invoke void @_ZN6open3d4core6kernel18CPUReductionEngine27LaunchReductionKernelSerialItPFtttEEEvRKNS0_7IndexerET0_(ptr noundef nonnull align 8 dereferenceable(842) %11, ptr noundef %25)
          to label %26 unwind label %30

26:                                               ; preds = %24
  call void @llvm.lifetime.end.p0(i64 848, ptr nonnull %11) #27
  %27 = add nsw i64 %.016, 1
  %28 = load i64, ptr %8, align 8, !tbaa !62
  %.not.not = icmp slt i64 %.016, %28
  br i1 %.not.not, label %.lr.ph, label %._crit_edge

._crit_edge:                                      ; preds = %26, %17
  call void @__kmpc_for_static_fini(ptr nonnull @1, i32 %19)
  call void @llvm.lifetime.end.p0(i64 4, ptr nonnull %10) #27
  call void @llvm.lifetime.end.p0(i64 8, ptr nonnull %9) #27
  call void @llvm.lifetime.end.p0(i64 8, ptr nonnull %8) #27
  call void @llvm.lifetime.end.p0(i64 8, ptr nonnull %7) #27
  br label %29

29:                                               ; preds = %._crit_edge, %6
  ret void

30:                                               ; preds = %24, %.lr.ph
  %31 = landingpad { ptr, i32 }
          catch ptr null
  %32 = extractvalue { ptr, i32 } %31, 0
  call void @__clang_call_terminate(ptr %32) #37
  unreachable
}